; Function Attrs: mustprogress nounwind uwtable
define hidden noundef ptr @_ZN10HeapShared5rootsEv() local_unnamed_addr #2 align 2 {
  %1 = tail call noundef zeroext i1 @_ZN9CDSConfig15is_dumping_heapEv() #20
  br i1 %1, label %2, label %10

2:                                                ; preds = %0
  %3 = load i8, ptr @_ZN10HeapShared16_disable_writingE, align 1
  %4 = trunc i8 %3 to i1
  br i1 %4, label %_ZNK9OopHandle7resolveEv.exit, label %_ZN10HeapShared9can_writeEv.exit

_ZN10HeapShared9can_writeEv.exit:                 ; preds = %2
  %5 = load i8, ptr @UseG1GC, align 1
  %6 = trunc i8 %5 to i1
  %7 = load i8, ptr @UseCompressedClassPointers, align 1
  %8 = trunc i8 %7 to i1
  %9 = select i1 %6, i1 %8, i1 false
  br i1 %9, label %10, label %_ZNK9OopHandle7resolveEv.exit

10:                                               ; preds = %0, %_ZN10HeapShared9can_writeEv.exit
  %11 = load ptr, ptr @_ZN10HeapShared6_rootsE, align 8
  %12 = icmp eq ptr %11, null
  br i1 %12, label %_ZNK9OopHandle7resolveEv.exit, label %13

13:                                               ; preds = %10
  %14 = load ptr, ptr @_ZN14AccessInternal15RuntimeDispatchILm548932EP7oopDescLNS_11BarrierTypeE2EE10_load_funcE, align 8
  %15 = tail call noundef ptr %14(ptr noundef nonnull %11) #20
  br label %_ZNK9OopHandle7resolveEv.exit

_ZNK9OopHandle7resolveEv.exit:                    ; preds = %2, %13, %10, %_ZN10HeapShared9can_writeEv.exit
  %.0 = phi ptr [ null, %_ZN10HeapShared9can_writeEv.exit ], [ %15, %13 ], [ null, %10 ], [ null, %2 ]
  ret ptr %.0
}